target datalayout = "e-m:e-p270:32:32-p271:32:32-p272:64:64-i64:64-i128:128-f80:128-n8:16:32:64-S128"
target triple = "x86_64-pc-linux-gnu"

%struct.expert_field = type { i32, i32 }
%struct._packet_info = type { ptr, ptr, i32, i32, %struct.nstime_t, %struct.nstime_t, %struct.nstime_t, i8, ptr, ptr, ptr, ptr, %struct._address, %struct._address, %struct._address, %struct._address, %struct._address, %struct._address, i32, ptr, i8, [3 x i8], %struct.anon, i32, i32, i32, i32, ptr, i8, ptr, ptr, i16, i16, i32, i32, i16, i32, i32, ptr, ptr, ptr, i8, i8, i16, i16, i16, i32, i16, i16, ptr, ptr, ptr, ptr, ptr, i32, i32 }
%struct.nstime_t = type { i64, i32 }
%struct._address = type { i32, i32, ptr, ptr }
%struct.anon = type { i8, [3 x i8] }

@hf_oml_msg_disc = internal global i32 0, align 4
@hf_oml_placement = internal global i32 0, align 4
@hf_oml_sequence = internal global i32 0, align 4
@hf_oml_length = internal global i32 0, align 4
@hf_oml_manuf_id_len = internal global i32 0, align 4
@hf_oml_manuf_id_val = internal global i32 0, align 4
@ett_oml = internal global i32 0, align 4
@ei_unknown_manuf = internal global %struct.expert_field zeroinitializer, align 4
@ei_length_mismatch = internal global %struct.expert_field zeroinitializer, align 4
@proto_abis_oml = internal global i32 0, align 4
@global_oml_dialect = internal global i32 0, align 4
@sub_om2000 = internal global ptr null, align 8
@.str.702 = private unnamed_addr constant [4 x i8] c"OML\00", align 1
@top_tree = internal global ptr null, align 8
@.str.703 = private unnamed_addr constant [53 x i8] c"Indicated length (%u) does not match the actual (%u)\00", align 1
@ipaccess_magic = internal constant [13 x i8] c"com.ipaccess\00", align 1

; Function Attrs: null_pointer_is_valid sspstrong uwtable
define internal i32 @dissect_oml_manuf(ptr noundef %0, ptr noundef %1, ptr noundef %2, i32 noundef %3, ptr noundef %4) #0 {
  %6 = alloca i32, align 4
  %7 = alloca ptr, align 8
  %8 = alloca ptr, align 8
  %9 = alloca ptr, align 8
  %10 = alloca i32, align 4
  %11 = alloca ptr, align 8
  %12 = alloca i32, align 4
  %13 = alloca i32, align 4
  store ptr %0, ptr %7, align 8
  store ptr %1, ptr %8, align 8
  store ptr %2, ptr %9, align 8
  store i32 %3, ptr %10, align 4
  store ptr %4, ptr %11, align 8
  call void @llvm.lifetime.start.p0(i64 4, ptr %12) #5
  %14 = load ptr, ptr %9, align 8
  %15 = load i32, ptr @hf_oml_manuf_id_len, align 4
  %16 = load ptr, ptr %7, align 8
  %17 = load i32, ptr %10, align 4
  %18 = call ptr @proto_tree_add_item_ret_uint(ptr noundef %14, i32 noundef %15, ptr noundef %16, i32 noundef %17, i32 noundef 1, i32 noundef 0, ptr noundef %12)
  %19 = load ptr, ptr %9, align 8
  %20 = load i32, ptr @hf_oml_manuf_id_val, align 4
  %21 = load ptr, ptr %7, align 8
  %22 = load i32, ptr %10, align 4
  %23 = add i32 %22, 1
  %24 = load i32, ptr %12, align 4
  %25 = call ptr @proto_tree_add_item(ptr noundef %19, i32 noundef %20, ptr noundef %21, i32 noundef %23, i32 noundef %24, i32 noundef 0)
  %26 = load i32, ptr %12, align 4
  %27 = zext i32 %26 to i64
  %28 = icmp eq i64 %27, 14
  br i1 %28, label %33, label %29

29:                                               ; preds = %5
  %30 = load i32, ptr %12, align 4
  %31 = zext i32 %30 to i64
  %32 = icmp eq i64 %31, 13
  br i1 %32, label %33, label %50

33:                                               ; preds = %29, %5
  %34 = load ptr, ptr %7, align 8
  %35 = load i32, ptr %10, align 4
  %36 = add i32 %35, 1
  %37 = call i32 @tvb_memeql(ptr noundef %34, i32 noundef %36, ptr noundef @ipaccess_magic, i64 noundef 13)
  %38 = icmp ne i32 %37, 0
  br i1 %38, label %50, label %39

39:                                               ; preds = %33
  %40 = load i32, ptr %12, align 4
  %41 = add i32 %40, 1
  %42 = load i32, ptr %10, align 4
  %43 = add i32 %42, %41
  store i32 %43, ptr %10, align 4
  %44 = load ptr, ptr %7, align 8
  %45 = load ptr, ptr %8, align 8
  %46 = load ptr, ptr %9, align 8
  %47 = load i32, ptr %10, align 4
  %48 = load ptr, ptr %11, align 8
  %49 = call i32 @dissect_oml_fom(ptr noundef %44, ptr noundef %45, ptr noundef %46, i32 noundef %47, ptr noundef %48)
  store i32 %49, ptr %6, align 4
  store i32 1, ptr %13, align 4
  br label %55

50:                                               ; preds = %33, %29
  %51 = load ptr, ptr %8, align 8
  %52 = load ptr, ptr %11, align 8
  %53 = call ptr @expert_add_info(ptr noundef %51, ptr noundef %52, ptr noundef @ei_unknown_manuf)
  %54 = load i32, ptr %10, align 4
  store i32 %54, ptr %6, align 4
  store i32 1, ptr %13, align 4
  br label %55

55:                                               ; preds = %50, %39
  call void @llvm.lifetime.end.p0(i64 4, ptr %12) #5
  %56 = load i32, ptr %6, align 4
  ret i32 %56
}

; Function Attrs: null_pointer_is_valid sspstrong uwtable
define internal i32 @dissect_abis_oml(ptr noundef %0, ptr noundef %1, ptr noundef %2, ptr noundef %3) #0 {
  %5 = alloca ptr, align 8
  %6 = alloca ptr, align 8
  %7 = alloca ptr, align 8
  %8 = alloca ptr, align 8
  %9 = alloca ptr, align 8
  %10 = alloca ptr, align 8
  %11 = alloca i32, align 4
  %12 = alloca i32, align 4
  %13 = alloca i8, align 1
  %14 = alloca i8, align 1
  %15 = alloca ptr, align 8
  store ptr %0, ptr %5, align 8
  store ptr %1, ptr %6, align 8
  store ptr %2, ptr %7, align 8
  store ptr %3, ptr %8, align 8
  call void @llvm.lifetime.start.p0(i64 8, ptr %9) #5
  call void @llvm.lifetime.start.p0(i64 8, ptr %10) #5
  call void @llvm.lifetime.start.p0(i64 4, ptr %11) #5
  call void @llvm.lifetime.start.p0(i64 4, ptr %12) #5
  store i32 0, ptr %12, align 4
  call void @llvm.lifetime.start.p0(i64 1, ptr %13) #5
  %16 = load ptr, ptr %5, align 8
  %17 = load i32, ptr %12, align 4
  %18 = call zeroext i8 @tvb_get_uint8(ptr noundef %16, i32 noundef %17)
  store i8 %18, ptr %13, align 1
  call void @llvm.lifetime.start.p0(i64 1, ptr %14) #5
  %19 = load ptr, ptr %5, align 8
  %20 = load i32, ptr %12, align 4
  %21 = add i32 %20, 3
  %22 = call zeroext i8 @tvb_get_uint8(ptr noundef %19, i32 noundef %21)
  store i8 %22, ptr %14, align 1
  %23 = load ptr, ptr %6, align 8
  %24 = getelementptr inbounds nuw %struct._packet_info, ptr %23, i32 0, i32 1
  %25 = load ptr, ptr %24, align 8
  call void @col_set_str(ptr noundef %25, i32 noundef 35, ptr noundef @.str.702)
  %26 = load ptr, ptr %7, align 8
  store ptr %26, ptr @top_tree, align 8
  %27 = load ptr, ptr %7, align 8
  %28 = load i32, ptr @proto_abis_oml, align 4
  %29 = load ptr, ptr %5, align 8
  %30 = call ptr @proto_tree_add_item(ptr noundef %27, i32 noundef %28, ptr noundef %29, i32 noundef 0, i32 noundef -1, i32 noundef 0)
  store ptr %30, ptr %9, align 8
  %31 = load ptr, ptr %9, align 8
  %32 = load i32, ptr @ett_oml, align 4
  %33 = call ptr @proto_item_add_subtree(ptr noundef %31, i32 noundef %32)
  store ptr %33, ptr %10, align 8
  %34 = load ptr, ptr %10, align 8
  %35 = load i32, ptr @hf_oml_msg_disc, align 4
  %36 = load ptr, ptr %5, align 8
  %37 = load i32, ptr %12, align 4
  %38 = add i32 %37, 1
  store i32 %38, ptr %12, align 4
  %39 = call ptr @proto_tree_add_item(ptr noundef %34, i32 noundef %35, ptr noundef %36, i32 noundef %37, i32 noundef 1, i32 noundef -2147483648)
  %40 = load ptr, ptr %10, align 8
  %41 = load i32, ptr @hf_oml_placement, align 4
  %42 = load ptr, ptr %5, align 8
  %43 = load i32, ptr %12, align 4
  %44 = add i32 %43, 1
  store i32 %44, ptr %12, align 4
  %45 = call ptr @proto_tree_add_item(ptr noundef %40, i32 noundef %41, ptr noundef %42, i32 noundef %43, i32 noundef 1, i32 noundef -2147483648)
  %46 = load ptr, ptr %10, align 8
  %47 = load i32, ptr @hf_oml_sequence, align 4
  %48 = load ptr, ptr %5, align 8
  %49 = load i32, ptr %12, align 4
  %50 = add i32 %49, 1
  store i32 %50, ptr %12, align 4
  %51 = call ptr @proto_tree_add_item(ptr noundef %46, i32 noundef %47, ptr noundef %48, i32 noundef %49, i32 noundef 1, i32 noundef -2147483648)
  %52 = load ptr, ptr %10, align 8
  %53 = load i32, ptr @hf_oml_length, align 4
  %54 = load ptr, ptr %5, align 8
  %55 = load i32, ptr %12, align 4
  %56 = add i32 %55, 1
  store i32 %56, ptr %12, align 4
  %57 = call ptr @proto_tree_add_item(ptr noundef %52, i32 noundef %53, ptr noundef %54, i32 noundef %55, i32 noundef 1, i32 noundef -2147483648)
  %58 = load i8, ptr %13, align 1
  %59 = zext i8 %58 to i32
  %60 = icmp eq i32 %59, 16
  br i1 %60, label %61, label %71

61:                                               ; preds = %4
  %62 = load ptr, ptr %5, align 8
  %63 = load i32, ptr %12, align 4
  %64 = add i32 %63, 1
  %65 = load ptr, ptr %5, align 8
  %66 = load i32, ptr %12, align 4
  %67 = call zeroext i8 @tvb_get_uint8(ptr noundef %65, i32 noundef %66)
  %68 = zext i8 %67 to i32
  %69 = add i32 %64, %68
  %70 = call i32 @tvb_reported_length_remaining(ptr noundef %62, i32 noundef %69)
  store i32 %70, ptr %11, align 4
  br label %75

71:                                               ; preds = %4
  %72 = load ptr, ptr %5, align 8
  %73 = load i32, ptr %12, align 4
  %74 = call i32 @tvb_reported_length_remaining(ptr noundef %72, i32 noundef %73)
  store i32 %74, ptr %11, align 4
  br label %75

75:                                               ; preds = %71, %61
  %76 = load i8, ptr %14, align 1
  %77 = zext i8 %76 to i32
  %78 = load i32, ptr %11, align 4
  %79 = icmp ne i32 %77, %78
  br i1 %79, label %80, label %87

80:                                               ; preds = %75
  %81 = load ptr, ptr %6, align 8
  %82 = load ptr, ptr %9, align 8
  %83 = load i8, ptr %14, align 1
  %84 = zext i8 %83 to i32
  %85 = load i32, ptr %11, align 4
  %86 = call ptr (ptr, ptr, ptr, ptr, ...) @expert_add_info_format(ptr noundef %81, ptr noundef %82, ptr noundef @ei_length_mismatch, ptr noundef @.str.703, i32 noundef %84, i32 noundef %85)
  br label %87

87:                                               ; preds = %80, %75
  %88 = load i32, ptr @global_oml_dialect, align 4
  %89 = icmp eq i32 %88, 3
  br i1 %89, label %90, label %105

90:                                               ; preds = %87
  call void @llvm.lifetime.start.p0(i64 8, ptr %15) #5
  %91 = load ptr, ptr %5, align 8
  %92 = load i32, ptr %12, align 4
  %93 = load i8, ptr %14, align 1
  %94 = zext i8 %93 to i32
  %95 = call ptr @tvb_new_subset_length(ptr noundef %91, i32 noundef %92, i32 noundef %94)
  store ptr %95, ptr %15, align 8
  %96 = load ptr, ptr @sub_om2000, align 8
  %97 = icmp ne ptr %96, null
  br i1 %97, label %98, label %104

98:                                               ; preds = %90
  %99 = load ptr, ptr @sub_om2000, align 8
  %100 = load ptr, ptr %15, align 8
  %101 = load ptr, ptr %6, align 8
  %102 = load ptr, ptr %7, align 8
  %103 = call i32 @call_dissector(ptr noundef %99, ptr noundef %100, ptr noundef %101, ptr noundef %102)
  br label %104

104:                                              ; preds = %98, %90
  call void @llvm.lifetime.end.p0(i64 8, ptr %15) #5
  br label %125

105:                                              ; preds = %87
  %106 = load i8, ptr %13, align 1
  %107 = zext i8 %106 to i32
  switch i32 %107, label %123 [
    i32 128, label %108
    i32 16, label %115
    i32 64, label %122
    i32 32, label %122
  ]

108:                                              ; preds = %105
  %109 = load ptr, ptr %5, align 8
  %110 = load ptr, ptr %6, align 8
  %111 = load ptr, ptr %10, align 8
  %112 = load i32, ptr %12, align 4
  %113 = load ptr, ptr %9, align 8
  %114 = call i32 @dissect_oml_fom(ptr noundef %109, ptr noundef %110, ptr noundef %111, i32 noundef %112, ptr noundef %113)
  store i32 %114, ptr %12, align 4
  br label %124

115:                                              ; preds = %105
  %116 = load ptr, ptr %5, align 8
  %117 = load ptr, ptr %6, align 8
  %118 = load ptr, ptr %10, align 8
  %119 = load i32, ptr %12, align 4
  %120 = load ptr, ptr %9, align 8
  %121 = call i32 @dissect_oml_manuf(ptr noundef %116, ptr noundef %117, ptr noundef %118, i32 noundef %119, ptr noundef %120)
  store i32 %121, ptr %12, align 4
  br label %124

122:                                              ; preds = %105, %105
  br label %123

123:                                              ; preds = %105, %122
  br label %124

124:                                              ; preds = %123, %115, %108
  br label %125

125:                                              ; preds = %124, %104
  %126 = load i32, ptr %12, align 4
  call void @llvm.lifetime.end.p0(i64 1, ptr %14) #5
  call void @llvm.lifetime.end.p0(i64 1, ptr %13) #5
  call void @llvm.lifetime.end.p0(i64 4, ptr %12) #5
  call void @llvm.lifetime.end.p0(i64 4, ptr %11) #5
  call void @llvm.lifetime.end.p0(i64 8, ptr %10) #5
  call void @llvm.lifetime.end.p0(i64 8, ptr %9) #5
  ret i32 %126
}