; Function Attrs: null_pointer_is_valid sspstrong uwtable
define internal i32 @dissect_abis_oml(ptr noundef %0, ptr noundef %1, ptr noundef %2, ptr readnone captures(none) %3) #0 {
  %5 = alloca i32, align 4
  %6 = tail call zeroext i8 @tvb_get_uint8(ptr noundef %0, i32 noundef 0)
  %7 = tail call zeroext i8 @tvb_get_uint8(ptr noundef %0, i32 noundef 3)
  %8 = getelementptr inbounds nuw i8, ptr %1, i64 8
  %9 = load ptr, ptr %8, align 8
  tail call void @col_set_str(ptr noundef %9, i32 noundef 35, ptr noundef nonnull @.str.702)
  store ptr %2, ptr @top_tree, align 8
  %10 = load i32, ptr @proto_abis_oml, align 4
  %11 = tail call ptr @proto_tree_add_item(ptr noundef %2, i32 noundef %10, ptr noundef %0, i32 noundef 0, i32 noundef -1, i32 noundef 0)
  %12 = load i32, ptr @ett_oml, align 4
  %13 = tail call ptr @proto_item_add_subtree(ptr noundef %11, i32 noundef %12)
  %14 = load i32, ptr @hf_oml_msg_disc, align 4
  %15 = tail call ptr @proto_tree_add_item(ptr noundef %13, i32 noundef %14, ptr noundef %0, i32 noundef 0, i32 noundef 1, i32 noundef -2147483648)
  %16 = load i32, ptr @hf_oml_placement, align 4
  %17 = tail call ptr @proto_tree_add_item(ptr noundef %13, i32 noundef %16, ptr noundef %0, i32 noundef 1, i32 noundef 1, i32 noundef -2147483648)
  %18 = load i32, ptr @hf_oml_sequence, align 4
  %19 = tail call ptr @proto_tree_add_item(ptr noundef %13, i32 noundef %18, ptr noundef %0, i32 noundef 2, i32 noundef 1, i32 noundef -2147483648)
  %20 = load i32, ptr @hf_oml_length, align 4
  %21 = tail call ptr @proto_tree_add_item(ptr noundef %13, i32 noundef %20, ptr noundef %0, i32 noundef 3, i32 noundef 1, i32 noundef -2147483648)
  %22 = zext i8 %6 to i32
  %23 = icmp eq i8 %6, 16
  br i1 %23, label %24, label %28

24:                                               ; preds = %4
  %25 = tail call zeroext i8 @tvb_get_uint8(ptr noundef %0, i32 noundef 4)
  %26 = zext i8 %25 to i32
  %27 = add nuw nsw i32 %26, 5
  br label %28

28:                                               ; preds = %4, %24
  %.sink = phi i32 [ %27, %24 ], [ 4, %4 ]
  %29 = tail call i32 @tvb_reported_length_remaining(ptr noundef %0, i32 noundef %.sink)
  %30 = zext i8 %7 to i32
  %.not = icmp eq i32 %29, %30
  br i1 %.not, label %33, label %31

31:                                               ; preds = %28
  %32 = tail call ptr (ptr, ptr, ptr, ptr, ...) @expert_add_info_format(ptr noundef %1, ptr noundef %11, ptr noundef nonnull @ei_length_mismatch, ptr noundef nonnull @.str.703, i32 noundef %30, i32 noundef %29)
  br label %33

33:                                               ; preds = %31, %28
  %34 = load i32, ptr @global_oml_dialect, align 4
  %35 = icmp eq i32 %34, 3
  br i1 %35, label %36, label %41

36:                                               ; preds = %33
  %37 = tail call ptr @tvb_new_subset_length(ptr noundef %0, i32 noundef 4, i32 noundef %30)
  %38 = load ptr, ptr @sub_om2000, align 8
  %.not54 = icmp eq ptr %38, null
  br i1 %.not54, label %62, label %39

39:                                               ; preds = %36
  %40 = tail call i32 @call_dissector(ptr noundef nonnull %38, ptr noundef %37, ptr noundef %1, ptr noundef %2)
  br label %62

41:                                               ; preds = %33
  %42 = add nsw i32 %22, -16
  %43 = tail call i32 @llvm.fshl.i32(i32 %42, i32 %42, i32 28)
  switch i32 %43, label %62 [
    i32 7, label %44
    i32 0, label %46
  ]

44:                                               ; preds = %41
  %45 = tail call fastcc i32 @dissect_oml_fom(ptr noundef %0, ptr noundef %1, ptr noundef %13, i32 noundef 4, ptr noundef %11)
  br label %62

46:                                               ; preds = %41
  call void @llvm.lifetime.start.p0(i64 4, ptr nonnull %5) #5
  %47 = load i32, ptr @hf_oml_manuf_id_len, align 4
  %48 = call ptr @proto_tree_add_item_ret_uint(ptr noundef %13, i32 noundef %47, ptr noundef %0, i32 noundef 4, i32 noundef 1, i32 noundef 0, ptr noundef nonnull %5)
  %49 = load i32, ptr @hf_oml_manuf_id_val, align 4
  %50 = load i32, ptr %5, align 4
  %51 = call ptr @proto_tree_add_item(ptr noundef %13, i32 noundef %49, ptr noundef %0, i32 noundef 5, i32 noundef %50, i32 noundef 0)
  %52 = load i32, ptr %5, align 4
  %53 = add i32 %52, -13
  %or.cond.i = icmp ult i32 %53, 2
  br i1 %or.cond.i, label %54, label %60

54:                                               ; preds = %46
  %55 = call i32 @tvb_memeql(ptr noundef %0, i32 noundef 5, ptr noundef nonnull @ipaccess_magic, i64 noundef 13)
  %.not.i = icmp eq i32 %55, 0
  br i1 %.not.i, label %56, label %60

56:                                               ; preds = %54
  %57 = load i32, ptr %5, align 4
  %58 = add i32 %57, 5
  %59 = call fastcc i32 @dissect_oml_fom(ptr noundef %0, ptr noundef %1, ptr noundef %13, i32 noundef %58, ptr noundef %11)
  br label %dissect_oml_manuf.exit

60:                                               ; preds = %54, %46
  %61 = call ptr @expert_add_info(ptr noundef %1, ptr noundef %11, ptr noundef nonnull @ei_unknown_manuf)
  br label %dissect_oml_manuf.exit

dissect_oml_manuf.exit:                           ; preds = %56, %60
  %.0.i = phi i32 [ 4, %60 ], [ %59, %56 ]
  call void @llvm.lifetime.end.p0(i64 4, ptr nonnull %5) #5
  br label %62

62:                                               ; preds = %36, %39, %44, %dissect_oml_manuf.exit, %41
  %.051 = phi i32 [ 4, %41 ], [ %.0.i, %dissect_oml_manuf.exit ], [ %45, %44 ], [ 4, %39 ], [ 4, %36 ]
  ret i32 %.051
}